; Function Attrs: inlinehint mustprogress uwtable
define internal noundef nonnull ptr @_ZZN8pybind116detail16type_caster_baseIZ22test_submodule_modulesRNS_7module_EE1AE21make_copy_constructorIS4_vEEDTcmnw_T_piclsr3stdE7declvalIKS7_EEEtlPFPvPKvEEEPS8_ENUlSB_E_8__invokeESB_(ptr readnone captures(none) %0) #11 align 2 personality ptr @__gxx_personality_v0 {
  %2 = tail call noalias noundef nonnull dereferenceable(4) ptr @_Znwm(i64 noundef 4) #34
  invoke fastcc void @_ZZ22test_submodule_modulesRN8pybind117module_EEN1AC2ERKS2_(ptr noundef nonnull align 4 dereferenceable(4) %2)
          to label %_ZZN8pybind116detail16type_caster_baseIZ22test_submodule_modulesRNS_7module_EE1AE21make_copy_constructorIS4_vEEDTcmnw_T_piclsr3stdE7declvalIKS7_EEEtlPFPvPKvEEEPS8_ENKUlSB_E_clESB_.exit unwind label %3

3:                                                ; preds = %1
  %4 = landingpad { ptr, i32 }
          cleanup
  tail call void @_ZdlPvm(ptr noundef nonnull %2, i64 noundef 4) #33
  resume { ptr, i32 } %4

_ZZN8pybind116detail16type_caster_baseIZ22test_submodule_modulesRNS_7module_EE1AE21make_copy_constructorIS4_vEEDTcmnw_T_piclsr3stdE7declvalIKS7_EEEtlPFPvPKvEEEPS8_ENKUlSB_E_clESB_.exit: ; preds = %1
  ret ptr %2
}